target datalayout = "e-m:e-p270:32:32-p271:32:32-p272:64:64-i64:64-i128:128-f80:128-n8:16:32:64-S128"
target triple = "x86_64-pc-linux-gnu"

%struct.mbedtls_md_info_t = type { ptr, i32, i8, i8 }
%struct.mbedtls_md_context_t = type { ptr, ptr, ptr }

; Function Attrs: mustprogress uwtable
define hidden i32 @mbedtls_md_process(ptr noundef %0, ptr noundef %1) #1 {
  %3 = alloca i32, align 4
  %4 = alloca ptr, align 8
  %5 = alloca ptr, align 8
  store ptr %0, ptr %4, align 8, !tbaa !10
  store ptr %1, ptr %5, align 8, !tbaa !3
  %6 = load ptr, ptr %4, align 8, !tbaa !10
  %7 = icmp eq ptr %6, null
  br i1 %7, label %13, label %8

8:                                                ; preds = %2
  %9 = load ptr, ptr %4, align 8, !tbaa !10
  %10 = getelementptr inbounds nuw %struct.mbedtls_md_context_t, ptr %9, i32 0, i32 0
  %11 = load ptr, ptr %10, align 8, !tbaa !12
  %12 = icmp eq ptr %11, null
  br i1 %12, label %13, label %14

13:                                               ; preds = %8, %2
  store i32 -20736, ptr %3, align 4
  br label %39

14:                                               ; preds = %8
  %15 = load ptr, ptr %4, align 8, !tbaa !10
  %16 = getelementptr inbounds nuw %struct.mbedtls_md_context_t, ptr %15, i32 0, i32 0
  %17 = load ptr, ptr %16, align 8, !tbaa !12
  %18 = getelementptr inbounds nuw %struct.mbedtls_md_info_t, ptr %17, i32 0, i32 1
  %19 = load i32, ptr %18, align 8, !tbaa !16
  switch i32 %19, label %38 [
    i32 2, label %20
    i32 3, label %26
    i32 4, label %32
  ]

20:                                               ; preds = %14
  %21 = load ptr, ptr %4, align 8, !tbaa !10
  %22 = getelementptr inbounds nuw %struct.mbedtls_md_context_t, ptr %21, i32 0, i32 1
  %23 = load ptr, ptr %22, align 8, !tbaa !15
  %24 = load ptr, ptr %5, align 8, !tbaa !3
  %25 = call i32 @mbedtls_internal_sha1_process(ptr noundef %23, ptr noundef %24)
  store i32 %25, ptr %3, align 4
  br label %39

26:                                               ; preds = %14
  %27 = load ptr, ptr %4, align 8, !tbaa !10
  %28 = getelementptr inbounds nuw %struct.mbedtls_md_context_t, ptr %27, i32 0, i32 1
  %29 = load ptr, ptr %28, align 8, !tbaa !15
  %30 = load ptr, ptr %5, align 8, !tbaa !3
  %31 = call i32 @mbedtls_internal_sha256_process(ptr noundef %29, ptr noundef %30)
  store i32 %31, ptr %3, align 4
  br label %39

32:                                               ; preds = %14
  %33 = load ptr, ptr %4, align 8, !tbaa !10
  %34 = getelementptr inbounds nuw %struct.mbedtls_md_context_t, ptr %33, i32 0, i32 1
  %35 = load ptr, ptr %34, align 8, !tbaa !15
  %36 = load ptr, ptr %5, align 8, !tbaa !3
  %37 = call i32 @mbedtls_internal_sha256_process(ptr noundef %35, ptr noundef %36)
  store i32 %37, ptr %3, align 4
  br label %39

38:                                               ; preds = %14
  store i32 -20736, ptr %3, align 4
  br label %39

39:                                               ; preds = %38, %32, %26, %20, %13
  %40 = load i32, ptr %3, align 4
  ret i32 %40
}