; Function Attrs: mustprogress uwtable
define hidden i32 @mbedtls_md_process(ptr noundef readonly captures(address_is_null) %0, ptr noundef %1) local_unnamed_addr #5 {
  %3 = icmp eq ptr %0, null
  br i1 %3, label %22, label %4

4:                                                ; preds = %2
  %5 = load ptr, ptr %0, align 8, !tbaa !3
  %6 = icmp eq ptr %5, null
  br i1 %6, label %22, label %7

7:                                                ; preds = %4
  %8 = getelementptr inbounds nuw i8, ptr %5, i64 8
  %9 = load i32, ptr %8, align 8, !tbaa !10
  switch i32 %9, label %22 [
    i32 2, label %10
    i32 3, label %14
    i32 4, label %18
  ]

10:                                               ; preds = %7
  %11 = getelementptr inbounds nuw i8, ptr %0, i64 8
  %12 = load ptr, ptr %11, align 8, !tbaa !9
  %13 = tail call i32 @mbedtls_internal_sha1_process(ptr noundef %12, ptr noundef %1)
  br label %22

14:                                               ; preds = %7
  %15 = getelementptr inbounds nuw i8, ptr %0, i64 8
  %16 = load ptr, ptr %15, align 8, !tbaa !9
  %17 = tail call i32 @mbedtls_internal_sha256_process(ptr noundef %16, ptr noundef %1)
  br label %22

18:                                               ; preds = %7
  %19 = getelementptr inbounds nuw i8, ptr %0, i64 8
  %20 = load ptr, ptr %19, align 8, !tbaa !9
  %21 = tail call i32 @mbedtls_internal_sha256_process(ptr noundef %20, ptr noundef %1)
  br label %22

22:                                               ; preds = %7, %2, %4, %18, %14, %10
  %.0 = phi i32 [ %21, %18 ], [ %17, %14 ], [ %13, %10 ], [ -20736, %4 ], [ -20736, %2 ], [ -20736, %7 ]
  ret i32 %.0
}